; Function Attrs: null_pointer_is_valid sspstrong uwtable
define internal fastcc void @dissect_affected_destinations_parameter(ptr noundef %0, ptr noundef %1, ptr noundef %2) unnamed_addr #0 {
  %4 = tail call zeroext i16 @tvb_get_ntohs(ptr noundef %0, i32 noundef 2)
  %5 = zext i16 %4 to i32
  %6 = add nsw i32 %5, -4
  %7 = sdiv i32 %6, 4
  %8 = and i32 %7, 65535
  %.not = icmp eq i32 %8, 0
  br i1 %.not, label %._crit_edge, label %.lr.ph

.lr.ph:                                           ; preds = %3, %18
  %indvars.iv = phi i32 [ %indvars.iv.next, %18 ], [ 0, %3 ]
  %.01618 = phi i32 [ %19, %18 ], [ 4, %3 ]
  %9 = load i32, ptr @hf_sua_mask, align 4
  %10 = tail call ptr @proto_tree_add_item(ptr noundef %1, i32 noundef %9, ptr noundef %0, i32 noundef %.01618, i32 noundef 1, i32 noundef 0)
  %11 = load i32, ptr @hf_sua_dpc, align 4
  %12 = or disjoint i32 %.01618, 1
  %13 = tail call ptr @proto_tree_add_item(ptr noundef %1, i32 noundef %11, ptr noundef %0, i32 noundef %12, i32 noundef 3, i32 noundef 0)
  %14 = tail call zeroext i1 @mtp3_pc_structured()
  br i1 %14, label %15, label %18

15:                                               ; preds = %.lr.ph
  %16 = tail call i32 @tvb_get_ntoh24(ptr noundef %0, i32 noundef %12)
  %17 = tail call ptr @mtp3_pc_to_str(i32 noundef %16)
  tail call void (ptr, ptr, ...) @proto_item_append_text(ptr noundef %13, ptr noundef nonnull @.str.445, ptr noundef %17)
  br label %18

18:                                               ; preds = %15, %.lr.ph
  %19 = add nuw nsw i32 %.01618, 4
  %indvars.iv.next = add nuw nsw i32 %indvars.iv, 1
  %exitcond.not = icmp eq i32 %indvars.iv.next, %8
  br i1 %exitcond.not, label %._crit_edge, label %.lr.ph, !llvm.loop !11

._crit_edge:                                      ; preds = %18, %3
  %20 = icmp eq i32 %8, 1
  %21 = select i1 %20, ptr @.str.443, ptr @.str.444
  tail call void (ptr, ptr, ...) @proto_item_append_text(ptr noundef %2, ptr noundef nonnull @.str.457, i32 noundef %8, ptr noundef nonnull %21)
  ret void
}